target datalayout = "e-m:e-p270:32:32-p271:32:32-p272:64:64-i64:64-i128:128-f80:128-n8:16:32:64-S128"
target triple = "x86_64-pc-linux-gnu"

%struct.JNINativeInterface_ = type { ptr, ptr, ptr, ptr, ptr, ptr, ptr, ptr, ptr, ptr, ptr, ptr, ptr, ptr, ptr, ptr, ptr, ptr, ptr, ptr, ptr, ptr, ptr, ptr, ptr, ptr, ptr, ptr, ptr, ptr, ptr, ptr, ptr, ptr, ptr, ptr, ptr, ptr, ptr, ptr, ptr, ptr, ptr, ptr, ptr, ptr, ptr, ptr, ptr, ptr, ptr, ptr, ptr, ptr, ptr, ptr, ptr, ptr, ptr, ptr, ptr, ptr, ptr, ptr, ptr, ptr, ptr, ptr, ptr, ptr, ptr, ptr, ptr, ptr, ptr, ptr, ptr, ptr, ptr, ptr, ptr, ptr, ptr, ptr, ptr, ptr, ptr, ptr, ptr, ptr, ptr, ptr, ptr, ptr, ptr, ptr, ptr, ptr, ptr, ptr, ptr, ptr, ptr, ptr, ptr, ptr, ptr, ptr, ptr, ptr, ptr, ptr, ptr, ptr, ptr, ptr, ptr, ptr, ptr, ptr, ptr, ptr, ptr, ptr, ptr, ptr, ptr, ptr, ptr, ptr, ptr, ptr, ptr, ptr, ptr, ptr, ptr, ptr, ptr, ptr, ptr, ptr, ptr, ptr, ptr, ptr, ptr, ptr, ptr, ptr, ptr, ptr, ptr, ptr, ptr, ptr, ptr, ptr, ptr, ptr, ptr, ptr, ptr, ptr, ptr, ptr, ptr, ptr, ptr, ptr, ptr, ptr, ptr, ptr, ptr, ptr, ptr, ptr, ptr, ptr, ptr, ptr, ptr, ptr, ptr, ptr, ptr, ptr, ptr, ptr, ptr, ptr, ptr, ptr, ptr, ptr, ptr, ptr, ptr, ptr, ptr, ptr, ptr, ptr, ptr, ptr, ptr, ptr, ptr, ptr, ptr, ptr, ptr, ptr, ptr, ptr, ptr, ptr, ptr, ptr, ptr, ptr, ptr, ptr, ptr, ptr, ptr, ptr, ptr, ptr, ptr, ptr, ptr, ptr, ptr }

@tkClass = hidden global ptr null, align 8
@awtLockMID = hidden global ptr null, align 8
@awtUnlockMID = hidden global ptr null, align 8
@awt_display = hidden global ptr null, align 8

; Function Attrs: nounwind uwtable
define void @Java_sun_awt_X11GraphicsConfig_destroyBackBuffer(ptr noundef %0, ptr noundef %1, i64 noundef %2) #0 {
  %4 = alloca ptr, align 8
  %5 = alloca ptr, align 8
  %6 = alloca i64, align 8
  %7 = alloca ptr, align 8
  store ptr %0, ptr %4, align 8
  store ptr %1, ptr %5, align 8
  store i64 %2, ptr %6, align 8
  br label %8

8:                                                ; preds = %3
  %9 = load ptr, ptr %4, align 8
  %10 = load ptr, ptr %9, align 8
  %11 = getelementptr inbounds %struct.JNINativeInterface_, ptr %10, i32 0, i32 228
  %12 = load ptr, ptr %11, align 8
  %13 = load ptr, ptr %4, align 8
  %14 = call zeroext i8 %12(ptr noundef %13)
  %15 = icmp ne i8 %14, 0
  br i1 %15, label %16, label %22

16:                                               ; preds = %8
  %17 = load ptr, ptr %4, align 8
  %18 = load ptr, ptr %17, align 8
  %19 = getelementptr inbounds %struct.JNINativeInterface_, ptr %18, i32 0, i32 17
  %20 = load ptr, ptr %19, align 8
  %21 = load ptr, ptr %4, align 8
  call void %20(ptr noundef %21)
  br label %22

22:                                               ; preds = %16, %8
  %23 = load ptr, ptr %4, align 8
  %24 = load ptr, ptr %23, align 8
  %25 = getelementptr inbounds %struct.JNINativeInterface_, ptr %24, i32 0, i32 141
  %26 = load ptr, ptr %25, align 8
  %27 = load ptr, ptr %4, align 8
  %28 = load ptr, ptr @tkClass, align 8
  %29 = load ptr, ptr @awtLockMID, align 8
  call void (ptr, ptr, ptr, ...) %26(ptr noundef %27, ptr noundef %28, ptr noundef %29)
  %30 = load ptr, ptr %4, align 8
  %31 = load ptr, ptr %30, align 8
  %32 = getelementptr inbounds %struct.JNINativeInterface_, ptr %31, i32 0, i32 228
  %33 = load ptr, ptr %32, align 8
  %34 = load ptr, ptr %4, align 8
  %35 = call zeroext i8 %33(ptr noundef %34)
  %36 = icmp ne i8 %35, 0
  br i1 %36, label %37, label %43

37:                                               ; preds = %22
  %38 = load ptr, ptr %4, align 8
  %39 = load ptr, ptr %38, align 8
  %40 = getelementptr inbounds %struct.JNINativeInterface_, ptr %39, i32 0, i32 17
  %41 = load ptr, ptr %40, align 8
  %42 = load ptr, ptr %4, align 8
  call void %41(ptr noundef %42)
  br label %43

43:                                               ; preds = %37, %22
  br label %44

44:                                               ; preds = %43
  %45 = load ptr, ptr @awt_display, align 8
  %46 = load i64, ptr %6, align 8
  %47 = call i32 @XdbeDeallocateBackBufferName(ptr noundef %45, i64 noundef %46)
  br label %48

48:                                               ; preds = %44
  call void (...) @awt_output_flush()
  br label %49

49:                                               ; preds = %48
  %50 = load ptr, ptr %4, align 8
  %51 = load ptr, ptr %50, align 8
  %52 = getelementptr inbounds %struct.JNINativeInterface_, ptr %51, i32 0, i32 15
  %53 = load ptr, ptr %52, align 8
  %54 = load ptr, ptr %4, align 8
  %55 = call ptr %53(ptr noundef %54)
  store ptr %55, ptr %7, align 8
  %56 = icmp ne ptr %55, null
  br i1 %56, label %57, label %63

57:                                               ; preds = %49
  %58 = load ptr, ptr %4, align 8
  %59 = load ptr, ptr %58, align 8
  %60 = getelementptr inbounds %struct.JNINativeInterface_, ptr %59, i32 0, i32 17
  %61 = load ptr, ptr %60, align 8
  %62 = load ptr, ptr %4, align 8
  call void %61(ptr noundef %62)
  br label %63

63:                                               ; preds = %57, %49
  %64 = load ptr, ptr %4, align 8
  %65 = load ptr, ptr %64, align 8
  %66 = getelementptr inbounds %struct.JNINativeInterface_, ptr %65, i32 0, i32 141
  %67 = load ptr, ptr %66, align 8
  %68 = load ptr, ptr %4, align 8
  %69 = load ptr, ptr @tkClass, align 8
  %70 = load ptr, ptr @awtUnlockMID, align 8
  call void (ptr, ptr, ptr, ...) %67(ptr noundef %68, ptr noundef %69, ptr noundef %70)
  %71 = load ptr, ptr %4, align 8
  %72 = load ptr, ptr %71, align 8
  %73 = getelementptr inbounds %struct.JNINativeInterface_, ptr %72, i32 0, i32 228
  %74 = load ptr, ptr %73, align 8
  %75 = load ptr, ptr %4, align 8
  %76 = call zeroext i8 %74(ptr noundef %75)
  %77 = icmp ne i8 %76, 0
  br i1 %77, label %78, label %84

78:                                               ; preds = %63
  %79 = load ptr, ptr %4, align 8
  %80 = load ptr, ptr %79, align 8
  %81 = getelementptr inbounds %struct.JNINativeInterface_, ptr %80, i32 0, i32 17
  %82 = load ptr, ptr %81, align 8
  %83 = load ptr, ptr %4, align 8
  call void %82(ptr noundef %83)
  br label %84

84:                                               ; preds = %78, %63
  %85 = load ptr, ptr %7, align 8
  %86 = icmp ne ptr %85, null
  br i1 %86, label %87, label %95

87:                                               ; preds = %84
  %88 = load ptr, ptr %4, align 8
  %89 = load ptr, ptr %88, align 8
  %90 = getelementptr inbounds %struct.JNINativeInterface_, ptr %89, i32 0, i32 13
  %91 = load ptr, ptr %90, align 8
  %92 = load ptr, ptr %4, align 8
  %93 = load ptr, ptr %7, align 8
  %94 = call i32 %91(ptr noundef %92, ptr noundef %93)
  br label %95

95:                                               ; preds = %87, %84
  br label %96

96:                                               ; preds = %95
  br label %97

97:                                               ; preds = %96
  ret void
}